target datalayout = "e-m:e-p270:32:32-p271:32:32-p272:64:64-i64:64-i128:128-f80:128-n8:16:32:64-S128"
target triple = "x86_64-pc-linux-gnu"

%struct.expert_field = type { i32, i32 }
%struct.ssl_common_dissect = type { %struct.anon.0, %struct.anon.1, %struct.anon.2 }
%struct.anon.0 = type { i32, i32, i32, i32, i32, i32, i32, i32, i32, i32, i32, i32, i32, i32, i32, i32, i32, i32, i32, i32, i32, i32, i32, i32, i32, i32, i32, i32, i32, i32, i32, i32, i32, i32, i32, i32, i32, i32, i32, i32, i32, i32, i32, i32, i32, i32, i32, i32, i32, i32, i32, i32, i32, i32, i32, i32, i32, i32, i32, i32, i32, i32, i32, i32, i32, i32, i32, i32, i32, i32, i32, i32, i32, i32, i32, i32, i32, i32, i32, i32, i32, i32, i32, i32, i32, i32, i32, i32, i32, i32, i32, i32, i32, i32, i32, i32, i32, i32, i32, i32, i32, i32, i32, i32, i32, i32, i32, i32, i32, i32, i32, i32, i32, i32, i32, i32, i32, i32, i32, i32, i32, i32, i32, i32, i32, i32, i32, i32, i32, i32, i32, i32, i32, i32, i32, i32, i32, i32, i32, i32, i32, i32, i32, i32, i32, i32, i32, i32, i32, i32, i32, i32, i32, i32, i32, i32, i32, i32, i32, i32, i32, i32, i32, i32, i32, i32, i32, i32, i32, i32, i32, i32, i32, i32, i32, i32, i32, i32, i32, i32, i32, i32, i32, i32, i32, i32, i32, i32, i32, i32, i32, i32, i32, i32, i32, i32, i32, i32, i32, i32, i32, i32, i32, i32, i32, i32, i32, i32, i32, i32, i32, i32, i32, i32, i32, i32, i32, i32, i32, i32, i32, i32, i32, i32, i32, i32, i32, i32, i32, i32, i32, i32, i32, i32, i32, i32, i32, i32, i32, i32, i32, i32, i32, i32, i32, i32, i32, i32, i32, i32, i32, i32, i32, i32, i32, i32, i32, i32, i32, i32, i32, i32, i32, i32, i32, i32, i32, i32, i32, i32, i32, i32, i32, i32, i32, i32, i32, i32, i32, i32, i32, i32, i32, i32 }
%struct.anon.1 = type { i32, i32, i32, i32, i32, i32, i32, i32, i32, i32, i32, i32, i32, i32, i32, i32, i32, i32, i32, i32, i32, i32, i32, i32, i32, i32, i32, i32, i32, i32, i32, i32, i32, i32, i32, i32, i32, i32, i32, i32 }
%struct.anon.2 = type { %struct.expert_field, %struct.expert_field, %struct.expert_field, %struct.expert_field, %struct.expert_field, %struct.expert_field, %struct.expert_field, %struct.expert_field, %struct.expert_field, %struct.expert_field, %struct.expert_field, %struct.expert_field, %struct.expert_field, %struct.expert_field, %struct.expert_field }
%struct._packet_info = type { ptr, ptr, i32, i32, %struct.nstime_t, %struct.nstime_t, %struct.nstime_t, i8, ptr, ptr, ptr, ptr, %struct._address, %struct._address, %struct._address, %struct._address, %struct._address, %struct._address, i32, ptr, i8, [3 x i8], %struct.anon, i32, i32, i32, i32, ptr, i8, ptr, ptr, i16, i16, i32, i32, i16, i32, i32, ptr, ptr, ptr, i8, i8, i16, i16, i16, i32, i16, i16, ptr, ptr, ptr, ptr, ptr, i32, i32 }
%struct.nstime_t = type { i64, i32 }
%struct._address = type { i32, i32, ptr, ptr }
%struct.anon = type { i8, [3 x i8] }

@hf_dtls_record_epoch64 = internal global i32 0, align 4
@hf_dtls_record_sequence_number = internal global i32 0, align 4
@hf_dtls_ack_message = internal global i32 0, align 4
@hf_dtls_ack_record_numbers_length = internal global i32 0, align 4
@hf_dtls_ack_record_numbers = internal global i32 0, align 4
@dissect_dtls_hf = internal global %struct.ssl_common_dissect zeroinitializer, align 4
@ett_dtls_ack = internal global i32 0, align 4
@ett_dtls_ack_record_number = internal global i32 0, align 4
@ett_dtls_ack_record_numbers = internal global i32 0, align 4
@.str.922 = private unnamed_addr constant [1 x i8] zeroinitializer, align 1
@.str.998 = private unnamed_addr constant [2 x i8] c"s\00", align 1
@.str.1002 = private unnamed_addr constant [16 x i8] c"Acknowledgement\00", align 1
@.str.1003 = private unnamed_addr constant [35 x i8] c"RecordNumbers (%u record number%s)\00", align 1
@.str.1004 = private unnamed_addr constant [45 x i8] c"RecordNumber: epoch %lu, sequence number %lu\00", align 1

; Function Attrs: null_pointer_is_valid sspstrong uwtable
define internal void @dissect_dtls_ack(ptr noundef %0, ptr noundef %1, ptr noundef %2, i32 noundef %3, i32 noundef %4) #0 {
  %6 = alloca ptr, align 8
  %7 = alloca ptr, align 8
  %8 = alloca ptr, align 8
  %9 = alloca i32, align 4
  %10 = alloca i32, align 4
  %11 = alloca i32, align 4
  %12 = alloca i32, align 4
  %13 = alloca ptr, align 8
  %14 = alloca ptr, align 8
  %15 = alloca ptr, align 8
  %16 = alloca i64, align 8
  %17 = alloca i64, align 8
  %18 = alloca i32, align 4
  store ptr %0, ptr %6, align 8
  store ptr %1, ptr %7, align 8
  store ptr %2, ptr %8, align 8
  store i32 %3, ptr %9, align 4
  store i32 %4, ptr %10, align 4
  call void @llvm.lifetime.start.p0(i64 4, ptr %11) #12
  call void @llvm.lifetime.start.p0(i64 4, ptr %12) #12
  call void @llvm.lifetime.start.p0(i64 8, ptr %13) #12
  call void @llvm.lifetime.start.p0(i64 8, ptr %14) #12
  call void @llvm.lifetime.start.p0(i64 8, ptr %15) #12
  call void @llvm.lifetime.start.p0(i64 8, ptr %16) #12
  call void @llvm.lifetime.start.p0(i64 8, ptr %17) #12
  %19 = load ptr, ptr %7, align 8
  %20 = getelementptr inbounds nuw %struct._packet_info, ptr %19, i32 0, i32 1
  %21 = load ptr, ptr %20, align 8
  call void @col_append_sep_str(ptr noundef %21, i32 noundef 25, ptr noundef null, ptr noundef @.str.1002)
  %22 = load ptr, ptr %8, align 8
  %23 = load i32, ptr @hf_dtls_ack_message, align 4
  %24 = load ptr, ptr %6, align 8
  %25 = load i32, ptr %9, align 4
  %26 = load i32, ptr %10, align 4
  %27 = call ptr @proto_tree_add_item(ptr noundef %22, i32 noundef %23, ptr noundef %24, i32 noundef %25, i32 noundef %26, i32 noundef 0)
  store ptr %27, ptr %13, align 8
  %28 = load ptr, ptr %13, align 8
  %29 = load i32, ptr @ett_dtls_ack, align 4
  %30 = call ptr @proto_item_add_subtree(ptr noundef %28, i32 noundef %29)
  store ptr %30, ptr %14, align 8
  %31 = load ptr, ptr %6, align 8
  %32 = load ptr, ptr %7, align 8
  %33 = load ptr, ptr %14, align 8
  %34 = load i32, ptr %9, align 4
  %35 = load i32, ptr %10, align 4
  %36 = load i32, ptr @hf_dtls_ack_record_numbers_length, align 4
  %37 = call zeroext i1 @ssl_add_vector(ptr noundef @dissect_dtls_hf, ptr noundef %31, ptr noundef %32, ptr noundef %33, i32 noundef %34, i32 noundef %35, ptr noundef %12, i32 noundef %36, i32 noundef 2, i32 noundef 65534)
  br i1 %37, label %39, label %38

38:                                               ; preds = %5
  store i32 1, ptr %18, align 4
  br label %92

39:                                               ; preds = %5
  %40 = load i32, ptr %9, align 4
  %41 = add i32 %40, 2
  store i32 %41, ptr %9, align 4
  %42 = load ptr, ptr %14, align 8
  %43 = load i32, ptr @hf_dtls_ack_record_numbers, align 4
  %44 = load ptr, ptr %6, align 8
  %45 = load i32, ptr %9, align 4
  %46 = load i32, ptr %12, align 4
  %47 = load i32, ptr %12, align 4
  %48 = udiv i32 %47, 16
  %49 = load i32, ptr %12, align 4
  %50 = udiv i32 %49, 16
  %51 = icmp eq i32 %50, 1
  %52 = select i1 %51, ptr @.str.922, ptr @.str.998
  %53 = call ptr (ptr, i32, ptr, i32, i32, ptr, ...) @proto_tree_add_none_format(ptr noundef %42, i32 noundef %43, ptr noundef %44, i32 noundef %45, i32 noundef %46, ptr noundef @.str.1003, i32 noundef %48, ptr noundef %52)
  store ptr %53, ptr %13, align 8
  %54 = load ptr, ptr %13, align 8
  %55 = load i32, ptr @ett_dtls_ack_record_numbers, align 4
  %56 = call ptr @proto_item_add_subtree(ptr noundef %54, i32 noundef %55)
  store ptr %56, ptr %14, align 8
  store i32 0, ptr %11, align 4
  br label %57

57:                                               ; preds = %88, %39
  %58 = load i32, ptr %11, align 4
  %59 = load i32, ptr %12, align 4
  %60 = icmp ult i32 %58, %59
  br i1 %60, label %61, label %91

61:                                               ; preds = %57
  %62 = load ptr, ptr %14, align 8
  %63 = load ptr, ptr %6, align 8
  %64 = load i32, ptr %9, align 4
  %65 = load i32, ptr %11, align 4
  %66 = add i32 %64, %65
  %67 = load i32, ptr @ett_dtls_ack_record_number, align 4
  %68 = call ptr @proto_tree_add_subtree(ptr noundef %62, ptr noundef %63, i32 noundef %66, i32 noundef 16, i32 noundef %67, ptr noundef null, ptr noundef @.str.922)
  store ptr %68, ptr %15, align 8
  %69 = load ptr, ptr %15, align 8
  %70 = load i32, ptr @hf_dtls_record_epoch64, align 4
  %71 = load ptr, ptr %6, align 8
  %72 = load i32, ptr %9, align 4
  %73 = load i32, ptr %11, align 4
  %74 = add i32 %72, %73
  %75 = add i32 %74, 0
  %76 = call ptr @proto_tree_add_item_ret_uint64(ptr noundef %69, i32 noundef %70, ptr noundef %71, i32 noundef %75, i32 noundef 8, i32 noundef 0, ptr noundef %16)
  %77 = load ptr, ptr %15, align 8
  %78 = load i32, ptr @hf_dtls_record_sequence_number, align 4
  %79 = load ptr, ptr %6, align 8
  %80 = load i32, ptr %9, align 4
  %81 = load i32, ptr %11, align 4
  %82 = add i32 %80, %81
  %83 = add i32 %82, 8
  %84 = call ptr @proto_tree_add_item_ret_uint64(ptr noundef %77, i32 noundef %78, ptr noundef %79, i32 noundef %83, i32 noundef 8, i32 noundef 0, ptr noundef %17)
  %85 = load ptr, ptr %15, align 8
  %86 = load i64, ptr %16, align 8
  %87 = load i64, ptr %17, align 8
  call void (ptr, ptr, ...) @proto_item_set_text(ptr noundef %85, ptr noundef @.str.1004, i64 noundef %86, i64 noundef %87)
  br label %88

88:                                               ; preds = %61
  %89 = load i32, ptr %11, align 4
  %90 = add i32 %89, 16
  store i32 %90, ptr %11, align 4
  br label %57, !llvm.loop !17

91:                                               ; preds = %57
  store i32 0, ptr %18, align 4
  br label %92

92:                                               ; preds = %91, %38
  call void @llvm.lifetime.end.p0(i64 8, ptr %17) #12
  call void @llvm.lifetime.end.p0(i64 8, ptr %16) #12
  call void @llvm.lifetime.end.p0(i64 8, ptr %15) #12
  call void @llvm.lifetime.end.p0(i64 8, ptr %14) #12
  call void @llvm.lifetime.end.p0(i64 8, ptr %13) #12
  call void @llvm.lifetime.end.p0(i64 4, ptr %12) #12
  call void @llvm.lifetime.end.p0(i64 4, ptr %11) #12
  %93 = load i32, ptr %18, align 4
  switch i32 %93, label %95 [
    i32 0, label %94
    i32 1, label %94
  ]

94:                                               ; preds = %92, %92
  ret void

95:                                               ; preds = %92
  unreachable
}