; Function Attrs: null_pointer_is_valid sspstrong uwtable
define internal fastcc void @dissect_dtls_ack(ptr noundef %0, ptr noundef %1, ptr noundef %2, i32 noundef %3, i32 noundef %4) unnamed_addr #0 {
  %6 = alloca i32, align 4
  %7 = alloca i64, align 8
  %8 = alloca i64, align 8
  call void @llvm.lifetime.start.p0(i64 4, ptr nonnull %6) #10
  call void @llvm.lifetime.start.p0(i64 8, ptr nonnull %7) #10
  call void @llvm.lifetime.start.p0(i64 8, ptr nonnull %8) #10
  %9 = getelementptr inbounds nuw i8, ptr %1, i64 8
  %10 = load ptr, ptr %9, align 8
  tail call void @col_append_sep_str(ptr noundef %10, i32 noundef 25, ptr noundef null, ptr noundef nonnull @.str.1002)
  %11 = load i32, ptr @hf_dtls_ack_message, align 4
  %12 = tail call ptr @proto_tree_add_item(ptr noundef %2, i32 noundef %11, ptr noundef %0, i32 noundef %3, i32 noundef %4, i32 noundef 0)
  %13 = load i32, ptr @ett_dtls_ack, align 4
  %14 = tail call ptr @proto_item_add_subtree(ptr noundef %12, i32 noundef %13)
  %15 = load i32, ptr @hf_dtls_ack_record_numbers_length, align 4
  %16 = call zeroext i1 @ssl_add_vector(ptr noundef nonnull @dissect_dtls_hf, ptr noundef %0, ptr noundef %1, ptr noundef %14, i32 noundef %3, i32 noundef %4, ptr noundef nonnull %6, i32 noundef %15, i32 noundef 2, i32 noundef 65534)
  br i1 %16, label %17, label %.loopexit

17:                                               ; preds = %5
  %18 = add i32 %3, 2
  %19 = load i32, ptr @hf_dtls_ack_record_numbers, align 4
  %20 = load i32, ptr %6, align 4
  %21 = lshr i32 %20, 4
  %22 = icmp eq i32 %21, 1
  %23 = select i1 %22, ptr @.str.922, ptr @.str.998
  %24 = call ptr (ptr, i32, ptr, i32, i32, ptr, ...) @proto_tree_add_none_format(ptr noundef %14, i32 noundef %19, ptr noundef %0, i32 noundef %18, i32 noundef %20, ptr noundef nonnull @.str.1003, i32 noundef %21, ptr noundef nonnull %23)
  %25 = load i32, ptr @ett_dtls_ack_record_numbers, align 4
  %26 = call ptr @proto_item_add_subtree(ptr noundef %24, i32 noundef %25)
  %27 = load i32, ptr %6, align 4
  %.not = icmp eq i32 %27, 0
  br i1 %.not, label %.loopexit, label %.lr.ph

.lr.ph:                                           ; preds = %17, %.lr.ph
  %.030 = phi i32 [ %38, %.lr.ph ], [ 0, %17 ]
  %28 = add i32 %.030, %18
  %29 = load i32, ptr @ett_dtls_ack_record_number, align 4
  %30 = call ptr @proto_tree_add_subtree(ptr noundef %26, ptr noundef %0, i32 noundef %28, i32 noundef 16, i32 noundef %29, ptr noundef null, ptr noundef nonnull @.str.922)
  %31 = load i32, ptr @hf_dtls_record_epoch64, align 4
  %32 = call ptr @proto_tree_add_item_ret_uint64(ptr noundef %30, i32 noundef %31, ptr noundef %0, i32 noundef %28, i32 noundef 8, i32 noundef 0, ptr noundef nonnull %7)
  %33 = load i32, ptr @hf_dtls_record_sequence_number, align 4
  %34 = add i32 %28, 8
  %35 = call ptr @proto_tree_add_item_ret_uint64(ptr noundef %30, i32 noundef %33, ptr noundef %0, i32 noundef %34, i32 noundef 8, i32 noundef 0, ptr noundef nonnull %8)
  %36 = load i64, ptr %7, align 8
  %37 = load i64, ptr %8, align 8
  call void (ptr, ptr, ...) @proto_item_set_text(ptr noundef %30, ptr noundef nonnull @.str.1004, i64 noundef %36, i64 noundef %37)
  %38 = add i32 %.030, 16
  %39 = load i32, ptr %6, align 4
  %40 = icmp ult i32 %38, %39
  br i1 %40, label %.lr.ph, label %.loopexit, !llvm.loop !19

.loopexit:                                        ; preds = %.lr.ph, %17, %5
  call void @llvm.lifetime.end.p0(i64 8, ptr nonnull %8) #10
  call void @llvm.lifetime.end.p0(i64 8, ptr nonnull %7) #10
  call void @llvm.lifetime.end.p0(i64 4, ptr nonnull %6) #10
  ret void
}